target datalayout = "e-m:e-p270:32:32-p271:32:32-p272:64:64-i64:64-i128:128-f80:128-n8:16:32:64-S128"
target triple = "x86_64-pc-linux-gnu"

@hf_yami_message_hdr = internal global i32 0, align 4
@hf_yami_message_data = internal global i32 0, align 4
@hf_yami_params_count = internal global i32 0, align 4
@ett_yami_msg_hdr = internal global i32 0, align 4
@ett_yami_msg_data = internal global i32 0, align 4
@.str.62 = private unnamed_addr constant [18 x i8] c", %u parameters: \00", align 1

; Function Attrs: null_pointer_is_valid sspstrong uwtable
define internal i32 @dissect_yami_data(ptr noundef %0, ptr noundef %1, i1 noundef zeroext %2, ptr noundef %3, i32 noundef %4) #0 {
  %6 = alloca i32, align 4
  %7 = alloca ptr, align 8
  %8 = alloca ptr, align 8
  %9 = alloca i8, align 1
  %10 = alloca ptr, align 8
  %11 = alloca i32, align 4
  %12 = alloca i32, align 4
  %13 = alloca ptr, align 8
  %14 = alloca ptr, align 8
  %15 = alloca i32, align 4
  %16 = alloca i32, align 4
  %17 = alloca i32, align 4
  store ptr %0, ptr %7, align 8
  store ptr %1, ptr %8, align 8
  %18 = zext i1 %2 to i8
  store i8 %18, ptr %9, align 1
  store ptr %3, ptr %10, align 8
  store i32 %4, ptr %11, align 4
  call void @llvm.lifetime.start.p0(i64 4, ptr %12) #3
  %19 = load i32, ptr %11, align 4
  store i32 %19, ptr %12, align 4
  call void @llvm.lifetime.start.p0(i64 8, ptr %13) #3
  call void @llvm.lifetime.start.p0(i64 8, ptr %14) #3
  call void @llvm.lifetime.start.p0(i64 4, ptr %15) #3
  call void @llvm.lifetime.start.p0(i64 4, ptr %16) #3
  %20 = load ptr, ptr %10, align 8
  %21 = load i8, ptr %9, align 1, !range !6, !noundef !7
  %22 = trunc i8 %21 to i1
  br i1 %22, label %23, label %25

23:                                               ; preds = %5
  %24 = load i32, ptr @hf_yami_message_data, align 4
  br label %27

25:                                               ; preds = %5
  %26 = load i32, ptr @hf_yami_message_hdr, align 4
  br label %27

27:                                               ; preds = %25, %23
  %28 = phi i32 [ %24, %23 ], [ %26, %25 ]
  %29 = load ptr, ptr %7, align 8
  %30 = load i32, ptr %11, align 4
  %31 = call ptr @proto_tree_add_item(ptr noundef %20, i32 noundef %28, ptr noundef %29, i32 noundef %30, i32 noundef 0, i32 noundef 0)
  store ptr %31, ptr %14, align 8
  %32 = load ptr, ptr %14, align 8
  %33 = load i8, ptr %9, align 1, !range !6, !noundef !7
  %34 = trunc i8 %33 to i1
  br i1 %34, label %35, label %37

35:                                               ; preds = %27
  %36 = load i32, ptr @ett_yami_msg_data, align 4
  br label %39

37:                                               ; preds = %27
  %38 = load i32, ptr @ett_yami_msg_hdr, align 4
  br label %39

39:                                               ; preds = %37, %35
  %40 = phi i32 [ %36, %35 ], [ %38, %37 ]
  %41 = call ptr @proto_item_add_subtree(ptr noundef %32, i32 noundef %40)
  store ptr %41, ptr %13, align 8
  %42 = load ptr, ptr %7, align 8
  %43 = load i32, ptr %11, align 4
  %44 = call i32 @tvb_get_letohl(ptr noundef %42, i32 noundef %43)
  store i32 %44, ptr %15, align 4
  %45 = load ptr, ptr %13, align 8
  %46 = load i32, ptr @hf_yami_params_count, align 4
  %47 = load ptr, ptr %7, align 8
  %48 = load i32, ptr %11, align 4
  %49 = call ptr @proto_tree_add_item(ptr noundef %45, i32 noundef %46, ptr noundef %47, i32 noundef %48, i32 noundef 4, i32 noundef -2147483648)
  %50 = load i32, ptr %11, align 4
  %51 = add i32 %50, 4
  store i32 %51, ptr %11, align 4
  %52 = load ptr, ptr %14, align 8
  %53 = load i32, ptr %15, align 4
  call void (ptr, ptr, ...) @proto_item_append_text(ptr noundef %52, ptr noundef @.str.62, i32 noundef %53)
  store i32 0, ptr %16, align 4
  br label %54

54:                                               ; preds = %69, %39
  %55 = load i32, ptr %16, align 4
  %56 = load i32, ptr %15, align 4
  %57 = icmp ult i32 %55, %56
  br i1 %57, label %58, label %72

58:                                               ; preds = %54
  %59 = load ptr, ptr %7, align 8
  %60 = load ptr, ptr %8, align 8
  %61 = load ptr, ptr %13, align 8
  %62 = load i32, ptr %11, align 4
  %63 = load ptr, ptr %14, align 8
  %64 = call i32 @dissect_yami_parameter(ptr noundef %59, ptr noundef %60, ptr noundef %61, i32 noundef %62, ptr noundef %63)
  store i32 %64, ptr %11, align 4
  %65 = load i32, ptr %11, align 4
  %66 = icmp eq i32 %65, -1
  br i1 %66, label %67, label %68

67:                                               ; preds = %58
  store i32 -1, ptr %6, align 4
  store i32 1, ptr %17, align 4
  br label %78

68:                                               ; preds = %58
  br label %69

69:                                               ; preds = %68
  %70 = load i32, ptr %16, align 4
  %71 = add i32 %70, 1
  store i32 %71, ptr %16, align 4
  br label %54, !llvm.loop !8

72:                                               ; preds = %54
  %73 = load ptr, ptr %14, align 8
  %74 = load i32, ptr %11, align 4
  %75 = load i32, ptr %12, align 4
  %76 = sub i32 %74, %75
  call void @proto_item_set_len(ptr noundef %73, i32 noundef %76)
  %77 = load i32, ptr %11, align 4
  store i32 %77, ptr %6, align 4
  store i32 1, ptr %17, align 4
  br label %78

78:                                               ; preds = %72, %67
  call void @llvm.lifetime.end.p0(i64 4, ptr %16) #3
  call void @llvm.lifetime.end.p0(i64 4, ptr %15) #3
  call void @llvm.lifetime.end.p0(i64 8, ptr %14) #3
  call void @llvm.lifetime.end.p0(i64 8, ptr %13) #3
  call void @llvm.lifetime.end.p0(i64 4, ptr %12) #3
  %79 = load i32, ptr %6, align 4
  ret i32 %79
}