; Function Attrs: null_pointer_is_valid sspstrong uwtable
define internal fastcc void @dissect_yami_data(ptr noundef %0, ptr noundef %1, i1 noundef zeroext %2, ptr noundef %3, i32 noundef %4) unnamed_addr #0 {
  %6 = load i32, ptr @hf_yami_message_data, align 4
  %7 = load i32, ptr @hf_yami_message_hdr, align 4
  %8 = select i1 %2, i32 %6, i32 %7
  %9 = tail call ptr @proto_tree_add_item(ptr noundef %3, i32 noundef %8, ptr noundef %0, i32 noundef %4, i32 noundef 0, i32 noundef 0)
  %10 = load i32, ptr @ett_yami_msg_data, align 4
  %11 = load i32, ptr @ett_yami_msg_hdr, align 4
  %12 = select i1 %2, i32 %10, i32 %11
  %13 = tail call ptr @proto_item_add_subtree(ptr noundef %9, i32 noundef %12)
  %14 = tail call i32 @tvb_get_letohl(ptr noundef %0, i32 noundef %4)
  %15 = load i32, ptr @hf_yami_params_count, align 4
  %16 = tail call ptr @proto_tree_add_item(ptr noundef %13, i32 noundef %15, ptr noundef %0, i32 noundef %4, i32 noundef 4, i32 noundef -2147483648)
  %17 = add i32 %4, 4
  tail call void (ptr, ptr, ...) @proto_item_append_text(ptr noundef %9, ptr noundef nonnull @.str.62, i32 noundef %14)
  %.not = icmp eq i32 %14, 0
  br i1 %.not, label %._crit_edge, label %.lr.ph

18:                                               ; preds = %.lr.ph
  %19 = add nuw i32 %.033, 1
  %exitcond.not = icmp eq i32 %19, %14
  br i1 %exitcond.not, label %._crit_edge, label %.lr.ph, !llvm.loop !8

.lr.ph:                                           ; preds = %5, %18
  %.033 = phi i32 [ %19, %18 ], [ 0, %5 ]
  %.02932 = phi i32 [ %20, %18 ], [ %17, %5 ]
  %20 = tail call fastcc i32 @dissect_yami_parameter(ptr noundef %0, ptr noundef %1, ptr noundef %13, i32 noundef %.02932, ptr noundef %9)
  %21 = icmp eq i32 %20, -1
  br i1 %21, label %.loopexit, label %18

._crit_edge:                                      ; preds = %18, %5
  %.029.lcssa = phi i32 [ %17, %5 ], [ %20, %18 ]
  %22 = sub i32 %.029.lcssa, %4
  tail call void @proto_item_set_len(ptr noundef %9, i32 noundef %22)
  br label %.loopexit

.loopexit:                                        ; preds = %.lr.ph, %._crit_edge
  ret void
}